; Function Attrs: mustprogress nounwind uwtable
define void @_ZN4LIEF3ELF27SymbolVersionAuxRequirementC2ERKNS0_7details13Elf32_VernauxE(ptr noundef nonnull align 8 dereferenceable(48) %0, ptr noundef nonnull readonly align 1 captures(none) dereferenceable(16) %1) unnamed_addr #0 align 2 {
  tail call void @_ZN4LIEF6ObjectC2Ev(ptr noundef nonnull align 8 dereferenceable(40) %0) #5
  %3 = getelementptr inbounds nuw i8, ptr %0, i64 8
  %4 = getelementptr inbounds nuw i8, ptr %0, i64 24
  store ptr %4, ptr %3, align 8, !tbaa !3
  %5 = getelementptr inbounds nuw i8, ptr %0, i64 16
  store i64 0, ptr %5, align 8, !tbaa !9
  store i8 0, ptr %4, align 8, !tbaa !12
  store ptr getelementptr inbounds nuw inrange(-16, 40) (i8, ptr @_ZTVN4LIEF3ELF27SymbolVersionAuxRequirementE, i64 16), ptr %0, align 8, !tbaa !13
  %6 = getelementptr inbounds nuw i8, ptr %0, i64 40
  %7 = load i32, ptr %1, align 1, !tbaa !27
  store i32 %7, ptr %6, align 8, !tbaa !19
  %8 = getelementptr inbounds nuw i8, ptr %0, i64 44
  %9 = getelementptr inbounds nuw i8, ptr %1, i64 4
  %10 = load i16, ptr %9, align 1, !tbaa !29
  store i16 %10, ptr %8, align 4, !tbaa !24
  %11 = getelementptr inbounds nuw i8, ptr %0, i64 46
  %12 = getelementptr inbounds nuw i8, ptr %1, i64 6
  %13 = load i16, ptr %12, align 1, !tbaa !30
  store i16 %13, ptr %11, align 2, !tbaa !26
  ret void
}